target datalayout = "e-m:e-p270:32:32-p271:32:32-p272:64:64-i64:64-i128:128-f80:128-n8:16:32:64-S128"
target triple = "x86_64-pc-linux-gnu"

; Function Attrs: nounwind uwtable
define internal void @ma_pcm_interleave_f32__reference(ptr noundef %0, ptr noundef %1, i64 noundef %2, i32 noundef %3) #0 {
  %5 = alloca ptr, align 8
  %6 = alloca ptr, align 8
  %7 = alloca i64, align 8
  %8 = alloca i32, align 4
  %9 = alloca ptr, align 8
  %10 = alloca ptr, align 8
  %11 = alloca i64, align 8
  %12 = alloca i32, align 4
  store ptr %0, ptr %5, align 8
  store ptr %1, ptr %6, align 8
  store i64 %2, ptr %7, align 8
  store i32 %3, ptr %8, align 4
  call void @llvm.lifetime.start.p0(i64 8, ptr %9) #21
  %13 = load ptr, ptr %5, align 8
  store ptr %13, ptr %9, align 8
  call void @llvm.lifetime.start.p0(i64 8, ptr %10) #21
  %14 = load ptr, ptr %6, align 8
  store ptr %14, ptr %10, align 8
  call void @llvm.lifetime.start.p0(i64 8, ptr %11) #21
  store i64 0, ptr %11, align 8
  br label %15

15:                                               ; preds = %46, %4
  %16 = load i64, ptr %11, align 8
  %17 = load i64, ptr %7, align 8
  %18 = icmp ult i64 %16, %17
  br i1 %18, label %19, label %49

19:                                               ; preds = %15
  call void @llvm.lifetime.start.p0(i64 4, ptr %12) #21
  store i32 0, ptr %12, align 4
  br label %20

20:                                               ; preds = %42, %19
  %21 = load i32, ptr %12, align 4
  %22 = load i32, ptr %8, align 4
  %23 = icmp ult i32 %21, %22
  br i1 %23, label %24, label %45

24:                                               ; preds = %20
  %25 = load ptr, ptr %10, align 8
  %26 = load i32, ptr %12, align 4
  %27 = zext i32 %26 to i64
  %28 = getelementptr inbounds nuw ptr, ptr %25, i64 %27
  %29 = load ptr, ptr %28, align 8
  %30 = load i64, ptr %11, align 8
  %31 = getelementptr inbounds nuw float, ptr %29, i64 %30
  %32 = load float, ptr %31, align 4
  %33 = load ptr, ptr %9, align 8
  %34 = load i64, ptr %11, align 8
  %35 = load i32, ptr %8, align 4
  %36 = zext i32 %35 to i64
  %37 = mul i64 %34, %36
  %38 = load i32, ptr %12, align 4
  %39 = zext i32 %38 to i64
  %40 = add i64 %37, %39
  %41 = getelementptr inbounds nuw float, ptr %33, i64 %40
  store float %32, ptr %41, align 4
  br label %42

42:                                               ; preds = %24
  %43 = load i32, ptr %12, align 4
  %44 = add i32 %43, 1
  store i32 %44, ptr %12, align 4
  br label %20

45:                                               ; preds = %20
  call void @llvm.lifetime.end.p0(i64 4, ptr %12) #21
  br label %46

46:                                               ; preds = %45
  %47 = load i64, ptr %11, align 8
  %48 = add i64 %47, 1
  store i64 %48, ptr %11, align 8
  br label %15

49:                                               ; preds = %15
  call void @llvm.lifetime.end.p0(i64 8, ptr %11) #21
  call void @llvm.lifetime.end.p0(i64 8, ptr %10) #21
  call void @llvm.lifetime.end.p0(i64 8, ptr %9) #21
  ret void
}

; Function Attrs: nounwind uwtable
define internal void @ma_pcm_interleave_f32__optimized(ptr noundef %0, ptr noundef %1, i64 noundef %2, i32 noundef %3) #0 {
  %5 = alloca ptr, align 8
  %6 = alloca ptr, align 8
  %7 = alloca i64, align 8
  %8 = alloca i32, align 4
  store ptr %0, ptr %5, align 8
  store ptr %1, ptr %6, align 8
  store i64 %2, ptr %7, align 8
  store i32 %3, ptr %8, align 4
  %9 = load ptr, ptr %5, align 8
  %10 = load ptr, ptr %6, align 8
  %11 = load i64, ptr %7, align 8
  %12 = load i32, ptr %8, align 4
  call void @ma_pcm_interleave_f32__reference(ptr noundef %9, ptr noundef %10, i64 noundef %11, i32 noundef %12)
  ret void
}

; Function Attrs: nounwind uwtable
define hidden void @ma_pcm_interleave_f32(ptr noundef %0, ptr noundef %1, i64 noundef %2, i32 noundef %3) #0 {
  %5 = alloca ptr, align 8
  %6 = alloca ptr, align 8
  %7 = alloca i64, align 8
  %8 = alloca i32, align 4
  store ptr %0, ptr %5, align 8
  store ptr %1, ptr %6, align 8
  store i64 %2, ptr %7, align 8
  store i32 %3, ptr %8, align 4
  %9 = load ptr, ptr %5, align 8
  %10 = load ptr, ptr %6, align 8
  %11 = load i64, ptr %7, align 8
  %12 = load i32, ptr %8, align 4
  call void @ma_pcm_interleave_f32__optimized(ptr noundef %9, ptr noundef %10, i64 noundef %11, i32 noundef %12)
  ret void
}