; Function Attrs: nofree norecurse nosync nounwind memory(read, argmem: readwrite, inaccessiblemem: none) uwtable
define hidden void @ma_pcm_interleave_f32(ptr noundef writeonly captures(none) %0, ptr noundef readonly captures(none) %1, i64 noundef %2, i32 noundef %3) local_unnamed_addr #20 {
  %.not.i.i = icmp eq i64 %2, 0
  br i1 %.not.i.i, label %ma_pcm_interleave_f32__optimized.exit, label %.preheader.lr.ph.i.i

.preheader.lr.ph.i.i:                             ; preds = %4
  %.not19.i.i = icmp eq i32 %3, 0
  %5 = zext i32 %3 to i64
  br i1 %.not19.i.i, label %ma_pcm_interleave_f32__optimized.exit, label %.preheader.us.i.i

.preheader.us.i.i:                                ; preds = %.preheader.lr.ph.i.i, %._crit_edge.us.i.i
  %.01417.us.i.i = phi i64 [ %14, %._crit_edge.us.i.i ], [ 0, %.preheader.lr.ph.i.i ]
  %6 = mul i64 %.01417.us.i.i, %5
  %7 = getelementptr float, ptr %0, i64 %6
  br label %8

8:                                                ; preds = %8, %.preheader.us.i.i
  %indvars.iv.i.i = phi i64 [ 0, %.preheader.us.i.i ], [ %indvars.iv.next.i.i, %8 ]
  %9 = getelementptr inbounds nuw ptr, ptr %1, i64 %indvars.iv.i.i
  %10 = load ptr, ptr %9, align 8
  %11 = getelementptr inbounds nuw float, ptr %10, i64 %.01417.us.i.i
  %12 = load float, ptr %11, align 4
  %13 = getelementptr float, ptr %7, i64 %indvars.iv.i.i
  store float %12, ptr %13, align 4
  %indvars.iv.next.i.i = add nuw nsw i64 %indvars.iv.i.i, 1
  %exitcond.not.i.i = icmp eq i64 %indvars.iv.next.i.i, %5
  br i1 %exitcond.not.i.i, label %._crit_edge.us.i.i, label %8

._crit_edge.us.i.i:                               ; preds = %8
  %14 = add nuw i64 %.01417.us.i.i, 1
  %exitcond22.not.i.i = icmp eq i64 %14, %2
  br i1 %exitcond22.not.i.i, label %ma_pcm_interleave_f32__optimized.exit, label %.preheader.us.i.i

ma_pcm_interleave_f32__optimized.exit:            ; preds = %._crit_edge.us.i.i, %4, %.preheader.lr.ph.i.i
  ret void
}